; ModuleID = '20/655.c'
source_filename = "20/655.c"
target datalayout = "e-m:e-p270:32:32-p271:32:32-p272:64:64-i64:64-f80:128-n8:16:32:64-S128"
target triple = "x86_64-pc-linux-gnu"

@.str = private unnamed_addr constant [6 x i8] c"%s %s\00", align 1
@.str.1 = private unnamed_addr constant [3 x i8] c"%c\00", align 1
@.str.2 = private unnamed_addr constant [3 x i8] c"%s\00", align 1
@.str.3 = private unnamed_addr constant [2 x i8] c"\0A\00", align 1

; Function Attrs: noinline nounwind uwtable
define dso_local i32 @main() #0 {
  %1 = alloca i32, align 4
  %2 = alloca [15 x i8], align 1
  %3 = alloca [5 x i8], align 1
  %4 = alloca i32, align 4
  %5 = alloca i32, align 4
  %6 = alloca i8*, align 8
  %7 = alloca i8, align 1
  store i32 0, i32* %1, align 4
  br label %8

8:                                                ; preds = %75, %0
  %9 = call i32 (i8*, ...) @__isoc99_scanf(i8* getelementptr inbounds ([6 x i8], [6 x i8]* @.str, i64 0, i64 0), [15 x i8]* %2, [5 x i8]* %3)
  %10 = icmp ne i32 %9, -1
  br i1 %10, label %11, label %77

11:                                               ; preds = %8
  store i32 0, i32* %4, align 4
  store i32 0, i32* %5, align 4
  %12 = getelementptr inbounds [15 x i8], [15 x i8]* %2, i64 0, i64 0
  store i8* %12, i8** %6, align 8
  %13 = getelementptr inbounds [15 x i8], [15 x i8]* %2, i64 0, i64 0
  %14 = load i8, i8* %13, align 1
  store i8 %14, i8* %7, align 1
  br label %15

15:                                               ; preds = %32, %11
  %16 = load i8*, i8** %6, align 8
  %17 = load i8, i8* %16, align 1
  %18 = sext i8 %17 to i32
  %19 = icmp ne i32 %18, 0
  br i1 %19, label %20, label %37

20:                                               ; preds = %15
  %21 = load i8*, i8** %6, align 8
  %22 = load i8, i8* %21, align 1
  %23 = sext i8 %22 to i32
  %24 = load i8, i8* %7, align 1
  %25 = sext i8 %24 to i32
  %26 = icmp sgt i32 %23, %25
  br i1 %26, label %27, label %31

27:                                               ; preds = %20
  %28 = load i8*, i8** %6, align 8
  %29 = load i8, i8* %28, align 1
  store i8 %29, i8* %7, align 1
  %30 = load i32, i32* %5, align 4
  store i32 %30, i32* %4, align 4
  br label %31

31:                                               ; preds = %27, %20
  br label %32

32:                                               ; preds = %31
  %33 = load i8*, i8** %6, align 8
  %34 = getelementptr inbounds i8, i8* %33, i32 1
  store i8* %34, i8** %6, align 8
  %35 = load i32, i32* %5, align 4
  %36 = add nsw i32 %35, 1
  store i32 %36, i32* %5, align 4
  br label %15

37:                                               ; preds = %15
  %38 = getelementptr inbounds [15 x i8], [15 x i8]* %2, i64 0, i64 0
  store i8* %38, i8** %6, align 8
  br label %39

39:                                               ; preds = %51, %37
  %40 = load i8*, i8** %6, align 8
  %41 = getelementptr inbounds [15 x i8], [15 x i8]* %2, i64 0, i64 0
  %42 = load i32, i32* %4, align 4
  %43 = sext i32 %42 to i64
  %44 = getelementptr inbounds i8, i8* %41, i64 %43
  %45 = icmp ule i8* %40, %44
  br i1 %45, label %46, label %54

46:                                               ; preds = %39
  %47 = load i8*, i8** %6, align 8
  %48 = load i8, i8* %47, align 1
  %49 = sext i8 %48 to i32
  %50 = call i32 (i8*, ...) @printf(i8* getelementptr inbounds ([3 x i8], [3 x i8]* @.str.1, i64 0, i64 0), i32 %49)
  br label %51

51:                                               ; preds = %46
  %52 = load i8*, i8** %6, align 8
  %53 = getelementptr inbounds i8, i8* %52, i32 1
  store i8* %53, i8** %6, align 8
  br label %39

54:                                               ; preds = %39
  %55 = getelementptr inbounds [5 x i8], [5 x i8]* %3, i64 0, i64 0
  %56 = call i32 (i8*, ...) @printf(i8* getelementptr inbounds ([3 x i8], [3 x i8]* @.str.2, i64 0, i64 0), i8* %55)
  %57 = getelementptr inbounds [15 x i8], [15 x i8]* %2, i64 0, i64 0
  %58 = load i32, i32* %4, align 4
  %59 = sext i32 %58 to i64
  %60 = getelementptr inbounds i8, i8* %57, i64 %59
  %61 = getelementptr inbounds i8, i8* %60, i64 1
  store i8* %61, i8** %6, align 8
  br label %62

62:                                               ; preds = %72, %54
  %63 = load i8*, i8** %6, align 8
  %64 = load i8, i8* %63, align 1
  %65 = sext i8 %64 to i32
  %66 = icmp ne i32 %65, 0
  br i1 %66, label %67, label %75

67:                                               ; preds = %62
  %68 = load i8*, i8** %6, align 8
  %69 = load i8, i8* %68, align 1
  %70 = sext i8 %69 to i32
  %71 = call i32 (i8*, ...) @printf(i8* getelementptr inbounds ([3 x i8], [3 x i8]* @.str.1, i64 0, i64 0), i32 %70)
  br label %72

72:                                               ; preds = %67
  %73 = load i8*, i8** %6, align 8
  %74 = getelementptr inbounds i8, i8* %73, i32 1
  store i8* %74, i8** %6, align 8
  br label %62

75:                                               ; preds = %62
  %76 = call i32 (i8*, ...) @printf(i8* getelementptr inbounds ([2 x i8], [2 x i8]* @.str.3, i64 0, i64 0))
  br label %8

77:                                               ; preds = %8
  %78 = load i32, i32* %1, align 4
  ret i32 %78
}

declare dso_local i32 @__isoc99_scanf(i8*, ...) #1

declare dso_local i32 @printf(i8*, ...) #1


!llvm.module.flags = !{!0}
!llvm.ident = !{!1}

!0 = !{i32 1, !"wchar_size", i32 4}
!1 = !{!"clang version 10.0.0-4ubuntu1 "}
